; Function Attrs: mustprogress uwtable
define hidden void @_Z14del_name_exprsP10name_exprs(ptr noundef %0) local_unnamed_addr #3 {
  %2 = icmp eq ptr %0, null
  br i1 %2, label %_Z7deallocI10name_exprsEvPT_.exit, label %3

3:                                                ; preds = %1
  %4 = load ptr, ptr %0, align 8, !tbaa !3
  %5 = load ptr, ptr %4, align 8
  tail call void %5(ptr noundef nonnull align 8 dereferenceable(8) %0) #18
  tail call void @_ZN6memory10deallocateEPv(ptr noundef nonnull %0)
  br label %_Z7deallocI10name_exprsEvPT_.exit

_Z7deallocI10name_exprsEvPT_.exit:                ; preds = %1, %3
  ret void
}